target datalayout = "e-m:e-p270:32:32-p271:32:32-p272:64:64-i64:64-i128:128-f80:128-n8:16:32:64-S128"
target triple = "x86_64-pc-linux-gnu"

@stderr = external global ptr, align 8
@Argv0 = internal global ptr null, align 8
@.str.700 = private unnamed_addr constant [169 x i8] c"Usage: %s [OPTIONS] [FILENAME [SQL]]\0AFILENAME is the name of an SQLite database. A new database is created\0Aif the file does not previously exist. Defaults to :memory:.\0A\00", align 1
@.str.701 = private unnamed_addr constant [20 x i8] c"OPTIONS include:\0A%s\00", align 1
@.str.702 = private unnamed_addr constant [49 x i8] c"Use the -help option for additional information\0A\00", align 1

; Function Attrs: nounwind uwtable
define internal void @usage(i32 noundef %0) #0 {
  %2 = alloca i32, align 4
  store i32 %0, ptr %2, align 4, !tbaa !3
  %3 = load ptr, ptr @stderr, align 8, !tbaa !12
  %4 = load ptr, ptr @Argv0, align 8, !tbaa !36
  %5 = call i32 (ptr, ptr, ...) @fprintf(ptr noundef %3, ptr noundef @.str.700, ptr noundef %4) #14
  %6 = load i32, ptr %2, align 4, !tbaa !3
  %7 = icmp ne i32 %6, 0
  br i1 %7, label %8, label %11

8:                                                ; preds = %1
  %9 = load ptr, ptr @stderr, align 8, !tbaa !12
  %10 = call i32 (ptr, ptr, ...) @fprintf(ptr noundef %9, ptr noundef @.str.701, ptr noundef @zOptions) #14
  br label %14

11:                                               ; preds = %1
  %12 = load ptr, ptr @stderr, align 8, !tbaa !12
  %13 = call i32 @fputs(ptr noundef @.str.702, ptr noundef %12)
  br label %14

14:                                               ; preds = %11, %8
  call void @exit(i32 noundef 0) #17
  unreachable
}