; Function Attrs: cold nofree noreturn nounwind uwtable
define internal fastcc void @usage() unnamed_addr #25 {
  %1 = load ptr, ptr @stderr, align 8, !tbaa !14
  %2 = load ptr, ptr @Argv0, align 8, !tbaa !29
  %3 = tail call i32 (ptr, ptr, ...) @fprintf(ptr noundef %1, ptr noundef nonnull @.str.700, ptr noundef %2) #46
  %4 = load ptr, ptr @stderr, align 8, !tbaa !14
  %5 = tail call i32 (ptr, ptr, ...) @fprintf(ptr noundef %4, ptr noundef nonnull @.str.701, ptr noundef nonnull @zOptions) #46
  tail call void @exit(i32 noundef 0) #51
  unreachable
}